target datalayout = "e-m:e-p270:32:32-p271:32:32-p272:64:64-i64:64-f80:128-n8:16:32:64-S128"
target triple = "x86_64-pc-linux-gnu"

@.str = private unnamed_addr constant [3 x i8] c"%d\00", align 1
@.str.1 = private unnamed_addr constant [7 x i8] c"%d%d%d\00", align 1
@.str.2 = private unnamed_addr constant [29 x i8] c"(%d,%d,%d)-(%d,%d,%d)=%.2lf\0A\00", align 1

; Function Attrs: noinline nounwind uwtable
define dso_local i32 @main() #0 {
  %1 = alloca i32, align 4
  %2 = alloca [100 x i32], align 16
  %3 = alloca [100 x i32], align 16
  %4 = alloca [100 x i32], align 16
  %5 = alloca i32, align 4
  %6 = alloca i32, align 4
  %7 = alloca i32, align 4
  %8 = alloca i32, align 4
  %9 = alloca i32, align 4
  %10 = alloca [100 x i32], align 16
  %11 = alloca [100 x i32], align 16
  %12 = alloca [10 x [10 x double]], align 16
  %13 = alloca [10 x [10 x double]], align 16
  %14 = alloca double, align 8
  %15 = alloca [72 x double], align 16
  store i32 0, i32* %1, align 4
  store i32 0, i32* %8, align 4
  %16 = call i32 (i8*, ...) @__isoc99_scanf(i8* getelementptr inbounds ([3 x i8], [3 x i8]* @.str, i64 0, i64 0), i32* %5)
  store i32 0, i32* %6, align 4
  br label %17

17:                                               ; preds = %33, %0
  %18 = load i32, i32* %6, align 4
  %19 = load i32, i32* %5, align 4
  %20 = sub nsw i32 %19, 1
  %21 = icmp sle i32 %18, %20
  br i1 %21, label %22, label %36

22:                                               ; preds = %17
  %23 = load i32, i32* %6, align 4
  %24 = sext i32 %23 to i64
  %25 = getelementptr inbounds [100 x i32], [100 x i32]* %2, i64 0, i64 %24
  %26 = load i32, i32* %6, align 4
  %27 = sext i32 %26 to i64
  %28 = getelementptr inbounds [100 x i32], [100 x i32]* %3, i64 0, i64 %27
  %29 = load i32, i32* %6, align 4
  %30 = sext i32 %29 to i64
  %31 = getelementptr inbounds [100 x i32], [100 x i32]* %4, i64 0, i64 %30
  %32 = call i32 (i8*, ...) @__isoc99_scanf(i8* getelementptr inbounds ([7 x i8], [7 x i8]* @.str.1, i64 0, i64 0), i32* %25, i32* %28, i32* %31)
  br label %33

33:                                               ; preds = %22
  %34 = load i32, i32* %6, align 4
  %35 = add nsw i32 %34, 1
  store i32 %35, i32* %6, align 4
  br label %17

36:                                               ; preds = %17
  store i32 0, i32* %6, align 4
  br label %37

37:                                               ; preds = %156, %36
  %38 = load i32, i32* %6, align 4
  %39 = load i32, i32* %5, align 4
  %40 = sub nsw i32 %39, 1
  %41 = icmp sle i32 %38, %40
  br i1 %41, label %42, label %159

42:                                               ; preds = %37
  %43 = load i32, i32* %6, align 4
  %44 = add nsw i32 %43, 1
  store i32 %44, i32* %7, align 4
  br label %45

45:                                               ; preds = %152, %42
  %46 = load i32, i32* %7, align 4
  %47 = load i32, i32* %5, align 4
  %48 = sub nsw i32 %47, 1
  %49 = icmp sle i32 %46, %48
  br i1 %49, label %50, label %155

50:                                               ; preds = %45
  %51 = load i32, i32* %6, align 4
  %52 = sext i32 %51 to i64
  %53 = getelementptr inbounds [100 x i32], [100 x i32]* %2, i64 0, i64 %52
  %54 = load i32, i32* %53, align 4
  %55 = load i32, i32* %7, align 4
  %56 = sext i32 %55 to i64
  %57 = getelementptr inbounds [100 x i32], [100 x i32]* %2, i64 0, i64 %56
  %58 = load i32, i32* %57, align 4
  %59 = sub nsw i32 %54, %58
  %60 = load i32, i32* %6, align 4
  %61 = sext i32 %60 to i64
  %62 = getelementptr inbounds [100 x i32], [100 x i32]* %2, i64 0, i64 %61
  %63 = load i32, i32* %62, align 4
  %64 = load i32, i32* %7, align 4
  %65 = sext i32 %64 to i64
  %66 = getelementptr inbounds [100 x i32], [100 x i32]* %2, i64 0, i64 %65
  %67 = load i32, i32* %66, align 4
  %68 = sub nsw i32 %63, %67
  %69 = mul nsw i32 %59, %68
  %70 = load i32, i32* %6, align 4
  %71 = sext i32 %70 to i64
  %72 = getelementptr inbounds [100 x i32], [100 x i32]* %3, i64 0, i64 %71
  %73 = load i32, i32* %72, align 4
  %74 = load i32, i32* %7, align 4
  %75 = sext i32 %74 to i64
  %76 = getelementptr inbounds [100 x i32], [100 x i32]* %3, i64 0, i64 %75
  %77 = load i32, i32* %76, align 4
  %78 = sub nsw i32 %73, %77
  %79 = load i32, i32* %6, align 4
  %80 = sext i32 %79 to i64
  %81 = getelementptr inbounds [100 x i32], [100 x i32]* %3, i64 0, i64 %80
  %82 = load i32, i32* %81, align 4
  %83 = load i32, i32* %7, align 4
  %84 = sext i32 %83 to i64
  %85 = getelementptr inbounds [100 x i32], [100 x i32]* %3, i64 0, i64 %84
  %86 = load i32, i32* %85, align 4
  %87 = sub nsw i32 %82, %86
  %88 = mul nsw i32 %78, %87
  %89 = add nsw i32 %69, %88
  %90 = load i32, i32* %6, align 4
  %91 = sext i32 %90 to i64
  %92 = getelementptr inbounds [100 x i32], [100 x i32]* %4, i64 0, i64 %91
  %93 = load i32, i32* %92, align 4
  %94 = load i32, i32* %7, align 4
  %95 = sext i32 %94 to i64
  %96 = getelementptr inbounds [100 x i32], [100 x i32]* %4, i64 0, i64 %95
  %97 = load i32, i32* %96, align 4
  %98 = sub nsw i32 %93, %97
  %99 = load i32, i32* %6, align 4
  %100 = sext i32 %99 to i64
  %101 = getelementptr inbounds [100 x i32], [100 x i32]* %4, i64 0, i64 %100
  %102 = load i32, i32* %101, align 4
  %103 = load i32, i32* %7, align 4
  %104 = sext i32 %103 to i64
  %105 = getelementptr inbounds [100 x i32], [100 x i32]* %4, i64 0, i64 %104
  %106 = load i32, i32* %105, align 4
  %107 = sub nsw i32 %102, %106
  %108 = mul nsw i32 %98, %107
  %109 = add nsw i32 %89, %108
  %110 = sitofp i32 %109 to double
  %111 = fmul double 1.000000e+00, %110
  %112 = load i32, i32* %6, align 4
  %113 = sext i32 %112 to i64
  %114 = getelementptr inbounds [10 x [10 x double]], [10 x [10 x double]]* %12, i64 0, i64 %113
  %115 = load i32, i32* %7, align 4
  %116 = sext i32 %115 to i64
  %117 = getelementptr inbounds [10 x double], [10 x double]* %114, i64 0, i64 %116
  store double %111, double* %117, align 8
  %118 = load i32, i32* %6, align 4
  %119 = sext i32 %118 to i64
  %120 = getelementptr inbounds [10 x [10 x double]], [10 x [10 x double]]* %12, i64 0, i64 %119
  %121 = load i32, i32* %7, align 4
  %122 = sext i32 %121 to i64
  %123 = getelementptr inbounds [10 x double], [10 x double]* %120, i64 0, i64 %122
  %124 = load double, double* %123, align 8
  %125 = call double @sqrt(double %124) #3
  %126 = load i32, i32* %6, align 4
  %127 = sext i32 %126 to i64
  %128 = getelementptr inbounds [10 x [10 x double]], [10 x [10 x double]]* %13, i64 0, i64 %127
  %129 = load i32, i32* %7, align 4
  %130 = sext i32 %129 to i64
  %131 = getelementptr inbounds [10 x double], [10 x double]* %128, i64 0, i64 %130
  store double %125, double* %131, align 8
  %132 = load i32, i32* %6, align 4
  %133 = sext i32 %132 to i64
  %134 = getelementptr inbounds [10 x [10 x double]], [10 x [10 x double]]* %13, i64 0, i64 %133
  %135 = load i32, i32* %7, align 4
  %136 = sext i32 %135 to i64
  %137 = getelementptr inbounds [10 x double], [10 x double]* %134, i64 0, i64 %136
  %138 = load double, double* %137, align 8
  %139 = load i32, i32* %8, align 4
  %140 = sext i32 %139 to i64
  %141 = getelementptr inbounds [72 x double], [72 x double]* %15, i64 0, i64 %140
  store double %138, double* %141, align 8
  %142 = load i32, i32* %6, align 4
  %143 = load i32, i32* %8, align 4
  %144 = sext i32 %143 to i64
  %145 = getelementptr inbounds [100 x i32], [100 x i32]* %10, i64 0, i64 %144
  store i32 %142, i32* %145, align 4
  %146 = load i32, i32* %7, align 4
  %147 = load i32, i32* %8, align 4
  %148 = sext i32 %147 to i64
  %149 = getelementptr inbounds [100 x i32], [100 x i32]* %11, i64 0, i64 %148
  store i32 %146, i32* %149, align 4
  %150 = load i32, i32* %8, align 4
  %151 = add nsw i32 %150, 1
  store i32 %151, i32* %8, align 4
  br label %152

152:                                              ; preds = %50
  %153 = load i32, i32* %7, align 4
  %154 = add nsw i32 %153, 1
  store i32 %154, i32* %7, align 4
  br label %45

155:                                              ; preds = %45
  br label %156

156:                                              ; preds = %155
  %157 = load i32, i32* %6, align 4
  %158 = add nsw i32 %157, 1
  store i32 %158, i32* %6, align 4
  br label %37

159:                                              ; preds = %37
  store i32 0, i32* %9, align 4
  br label %160

160:                                              ; preds = %250, %159
  %161 = load i32, i32* %9, align 4
  %162 = load i32, i32* %5, align 4
  %163 = load i32, i32* %5, align 4
  %164 = sub nsw i32 %163, 1
  %165 = mul nsw i32 %162, %164
  %166 = sdiv i32 %165, 2
  %167 = icmp slt i32 %161, %166
  br i1 %167, label %168, label %253

168:                                              ; preds = %160
  store i32 0, i32* %8, align 4
  br label %169

169:                                              ; preds = %246, %168
  %170 = load i32, i32* %8, align 4
  %171 = load i32, i32* %5, align 4
  %172 = load i32, i32* %5, align 4
  %173 = sub nsw i32 %172, 1
  %174 = mul nsw i32 %171, %173
  %175 = sdiv i32 %174, 2
  %176 = sub nsw i32 %175, 2
  %177 = icmp sle i32 %170, %176
  br i1 %177, label %178, label %249

178:                                              ; preds = %169
  %179 = load i32, i32* %8, align 4
  %180 = sext i32 %179 to i64
  %181 = getelementptr inbounds [72 x double], [72 x double]* %15, i64 0, i64 %180
  %182 = load double, double* %181, align 8
  %183 = load i32, i32* %8, align 4
  %184 = add nsw i32 %183, 1
  %185 = sext i32 %184 to i64
  %186 = getelementptr inbounds [72 x double], [72 x double]* %15, i64 0, i64 %185
  %187 = load double, double* %186, align 8
  %188 = fcmp olt double %182, %187
  br i1 %188, label %189, label %245

189:                                              ; preds = %178
  %190 = load i32, i32* %8, align 4
  %191 = sext i32 %190 to i64
  %192 = getelementptr inbounds [72 x double], [72 x double]* %15, i64 0, i64 %191
  %193 = load double, double* %192, align 8
  store double %193, double* %14, align 8
  %194 = load i32, i32* %8, align 4
  %195 = add nsw i32 %194, 1
  %196 = sext i32 %195 to i64
  %197 = getelementptr inbounds [72 x double], [72 x double]* %15, i64 0, i64 %196
  %198 = load double, double* %197, align 8
  %199 = load i32, i32* %8, align 4
  %200 = sext i32 %199 to i64
  %201 = getelementptr inbounds [72 x double], [72 x double]* %15, i64 0, i64 %200
  store double %198, double* %201, align 8
  %202 = load double, double* %14, align 8
  %203 = load i32, i32* %8, align 4
  %204 = add nsw i32 %203, 1
  %205 = sext i32 %204 to i64
  %206 = getelementptr inbounds [72 x double], [72 x double]* %15, i64 0, i64 %205
  store double %202, double* %206, align 8
  %207 = load i32, i32* %8, align 4
  %208 = sext i32 %207 to i64
  %209 = getelementptr inbounds [100 x i32], [100 x i32]* %10, i64 0, i64 %208
  %210 = load i32, i32* %209, align 4
  %211 = sitofp i32 %210 to double
  store double %211, double* %14, align 8
  %212 = load i32, i32* %8, align 4
  %213 = add nsw i32 %212, 1
  %214 = sext i32 %213 to i64
  %215 = getelementptr inbounds [100 x i32], [100 x i32]* %10, i64 0, i64 %214
  %216 = load i32, i32* %215, align 4
  %217 = load i32, i32* %8, align 4
  %218 = sext i32 %217 to i64
  %219 = getelementptr inbounds [100 x i32], [100 x i32]* %10, i64 0, i64 %218
  store i32 %216, i32* %219, align 4
  %220 = load double, double* %14, align 8
  %221 = fptosi double %220 to i32
  %222 = load i32, i32* %8, align 4
  %223 = add nsw i32 %222, 1
  %224 = sext i32 %223 to i64
  %225 = getelementptr inbounds [100 x i32], [100 x i32]* %10, i64 0, i64 %224
  store i32 %221, i32* %225, align 4
  %226 = load i32, i32* %8, align 4
  %227 = sext i32 %226 to i64
  %228 = getelementptr inbounds [100 x i32], [100 x i32]* %11, i64 0, i64 %227
  %229 = load i32, i32* %228, align 4
  %230 = sitofp i32 %229 to double
  store double %230, double* %14, align 8
  %231 = load i32, i32* %8, align 4
  %232 = add nsw i32 %231, 1
  %233 = sext i32 %232 to i64
  %234 = getelementptr inbounds [100 x i32], [100 x i32]* %11, i64 0, i64 %233
  %235 = load i32, i32* %234, align 4
  %236 = load i32, i32* %8, align 4
  %237 = sext i32 %236 to i64
  %238 = getelementptr inbounds [100 x i32], [100 x i32]* %11, i64 0, i64 %237
  store i32 %235, i32* %238, align 4
  %239 = load double, double* %14, align 8
  %240 = fptosi double %239 to i32
  %241 = load i32, i32* %8, align 4
  %242 = add nsw i32 %241, 1
  %243 = sext i32 %242 to i64
  %244 = getelementptr inbounds [100 x i32], [100 x i32]* %11, i64 0, i64 %243
  store i32 %240, i32* %244, align 4
  br label %245

245:                                              ; preds = %189, %178
  br label %246

246:                                              ; preds = %245
  %247 = load i32, i32* %8, align 4
  %248 = add nsw i32 %247, 1
  store i32 %248, i32* %8, align 4
  br label %169

249:                                              ; preds = %169
  br label %250

250:                                              ; preds = %249
  %251 = load i32, i32* %9, align 4
  %252 = add nsw i32 %251, 1
  store i32 %252, i32* %9, align 4
  br label %160

253:                                              ; preds = %160
  store i32 0, i32* %8, align 4
  br label %254

254:                                              ; preds = %310, %253
  %255 = load i32, i32* %8, align 4
  %256 = load i32, i32* %5, align 4
  %257 = load i32, i32* %5, align 4
  %258 = sub nsw i32 %257, 1
  %259 = mul nsw i32 %256, %258
  %260 = sdiv i32 %259, 2
  %261 = icmp slt i32 %255, %260
  br i1 %261, label %262, label %313

262:                                              ; preds = %254
  %263 = load i32, i32* %8, align 4
  %264 = sext i32 %263 to i64
  %265 = getelementptr inbounds [100 x i32], [100 x i32]* %10, i64 0, i64 %264
  %266 = load i32, i32* %265, align 4
  %267 = sext i32 %266 to i64
  %268 = getelementptr inbounds [100 x i32], [100 x i32]* %2, i64 0, i64 %267
  %269 = load i32, i32* %268, align 4
  %270 = load i32, i32* %8, align 4
  %271 = sext i32 %270 to i64
  %272 = getelementptr inbounds [100 x i32], [100 x i32]* %10, i64 0, i64 %271
  %273 = load i32, i32* %272, align 4
  %274 = sext i32 %273 to i64
  %275 = getelementptr inbounds [100 x i32], [100 x i32]* %3, i64 0, i64 %274
  %276 = load i32, i32* %275, align 4
  %277 = load i32, i32* %8, align 4
  %278 = sext i32 %277 to i64
  %279 = getelementptr inbounds [100 x i32], [100 x i32]* %10, i64 0, i64 %278
  %280 = load i32, i32* %279, align 4
  %281 = sext i32 %280 to i64
  %282 = getelementptr inbounds [100 x i32], [100 x i32]* %4, i64 0, i64 %281
  %283 = load i32, i32* %282, align 4
  %284 = load i32, i32* %8, align 4
  %285 = sext i32 %284 to i64
  %286 = getelementptr inbounds [100 x i32], [100 x i32]* %11, i64 0, i64 %285
  %287 = load i32, i32* %286, align 4
  %288 = sext i32 %287 to i64
  %289 = getelementptr inbounds [100 x i32], [100 x i32]* %2, i64 0, i64 %288
  %290 = load i32, i32* %289, align 4
  %291 = load i32, i32* %8, align 4
  %292 = sext i32 %291 to i64
  %293 = getelementptr inbounds [100 x i32], [100 x i32]* %11, i64 0, i64 %292
  %294 = load i32, i32* %293, align 4
  %295 = sext i32 %294 to i64
  %296 = getelementptr inbounds [100 x i32], [100 x i32]* %3, i64 0, i64 %295
  %297 = load i32, i32* %296, align 4
  %298 = load i32, i32* %8, align 4
  %299 = sext i32 %298 to i64
  %300 = getelementptr inbounds [100 x i32], [100 x i32]* %11, i64 0, i64 %299
  %301 = load i32, i32* %300, align 4
  %302 = sext i32 %301 to i64
  %303 = getelementptr inbounds [100 x i32], [100 x i32]* %4, i64 0, i64 %302
  %304 = load i32, i32* %303, align 4
  %305 = load i32, i32* %8, align 4
  %306 = sext i32 %305 to i64
  %307 = getelementptr inbounds [72 x double], [72 x double]* %15, i64 0, i64 %306
  %308 = load double, double* %307, align 8
  %309 = call i32 (i8*, ...) @printf(i8* getelementptr inbounds ([29 x i8], [29 x i8]* @.str.2, i64 0, i64 0), i32 %269, i32 %276, i32 %283, i32 %290, i32 %297, i32 %304, double %308)
  br label %310

310:                                              ; preds = %262
  %311 = load i32, i32* %8, align 4
  %312 = add nsw i32 %311, 1
  store i32 %312, i32* %8, align 4
  br label %254

313:                                              ; preds = %254
  ret i32 0
}